target datalayout = "e-m:e-p270:32:32-p271:32:32-p272:64:64-i64:64-i128:128-f80:128-n8:16:32:64-S128"
target triple = "x86_64-pc-linux-gnu"

%"class.Imf_3_4::KeyCode" = type { i32, i32, i32, i32, i32, i32, i32 }

; Function Attrs: mustprogress nounwind uwtable
define noundef nonnull align 4 dereferenceable(28) ptr @_ZN7Imf_3_47KeyCodeaSERKS0_(ptr noundef nonnull align 4 dereferenceable(28) %0, ptr noundef nonnull align 4 dereferenceable(28) %1) #1 align 2 {
  %3 = alloca ptr, align 8
  %4 = alloca ptr, align 8
  store ptr %0, ptr %3, align 8, !tbaa !3
  store ptr %1, ptr %4, align 8, !tbaa !3
  %5 = load ptr, ptr %3, align 8
  %6 = load ptr, ptr %4, align 8, !tbaa !3
  %7 = icmp ne ptr %5, %6
  br i1 %7, label %8, label %37

8:                                                ; preds = %2
  %9 = load ptr, ptr %4, align 8, !tbaa !3
  %10 = getelementptr inbounds nuw %"class.Imf_3_4::KeyCode", ptr %9, i32 0, i32 0
  %11 = load i32, ptr %10, align 4, !tbaa !10
  %12 = getelementptr inbounds nuw %"class.Imf_3_4::KeyCode", ptr %5, i32 0, i32 0
  store i32 %11, ptr %12, align 4, !tbaa !10
  %13 = load ptr, ptr %4, align 8, !tbaa !3
  %14 = getelementptr inbounds nuw %"class.Imf_3_4::KeyCode", ptr %13, i32 0, i32 1
  %15 = load i32, ptr %14, align 4, !tbaa !12
  %16 = getelementptr inbounds nuw %"class.Imf_3_4::KeyCode", ptr %5, i32 0, i32 1
  store i32 %15, ptr %16, align 4, !tbaa !12
  %17 = load ptr, ptr %4, align 8, !tbaa !3
  %18 = getelementptr inbounds nuw %"class.Imf_3_4::KeyCode", ptr %17, i32 0, i32 2
  %19 = load i32, ptr %18, align 4, !tbaa !13
  %20 = getelementptr inbounds nuw %"class.Imf_3_4::KeyCode", ptr %5, i32 0, i32 2
  store i32 %19, ptr %20, align 4, !tbaa !13
  %21 = load ptr, ptr %4, align 8, !tbaa !3
  %22 = getelementptr inbounds nuw %"class.Imf_3_4::KeyCode", ptr %21, i32 0, i32 3
  %23 = load i32, ptr %22, align 4, !tbaa !14
  %24 = getelementptr inbounds nuw %"class.Imf_3_4::KeyCode", ptr %5, i32 0, i32 3
  store i32 %23, ptr %24, align 4, !tbaa !14
  %25 = load ptr, ptr %4, align 8, !tbaa !3
  %26 = getelementptr inbounds nuw %"class.Imf_3_4::KeyCode", ptr %25, i32 0, i32 4
  %27 = load i32, ptr %26, align 4, !tbaa !15
  %28 = getelementptr inbounds nuw %"class.Imf_3_4::KeyCode", ptr %5, i32 0, i32 4
  store i32 %27, ptr %28, align 4, !tbaa !15
  %29 = load ptr, ptr %4, align 8, !tbaa !3
  %30 = getelementptr inbounds nuw %"class.Imf_3_4::KeyCode", ptr %29, i32 0, i32 5
  %31 = load i32, ptr %30, align 4, !tbaa !16
  %32 = getelementptr inbounds nuw %"class.Imf_3_4::KeyCode", ptr %5, i32 0, i32 5
  store i32 %31, ptr %32, align 4, !tbaa !16
  %33 = load ptr, ptr %4, align 8, !tbaa !3
  %34 = getelementptr inbounds nuw %"class.Imf_3_4::KeyCode", ptr %33, i32 0, i32 6
  %35 = load i32, ptr %34, align 4, !tbaa !17
  %36 = getelementptr inbounds nuw %"class.Imf_3_4::KeyCode", ptr %5, i32 0, i32 6
  store i32 %35, ptr %36, align 4, !tbaa !17
  br label %37

37:                                               ; preds = %8, %2
  ret ptr %5
}