; Function Attrs: mustprogress nofree norecurse nosync nounwind willreturn memory(argmem: readwrite) uwtable
define noundef nonnull align 4 dereferenceable(28) ptr @_ZN7Imf_3_47KeyCodeaSERKS0_(ptr noundef nonnull returned writeonly align 4 dereferenceable(28) %0, ptr noundef nonnull readonly align 4 dereferenceable(28) %1) local_unnamed_addr #1 align 2 {
  %.not = icmp eq ptr %0, %1
  br i1 %.not, label %23, label %3

3:                                                ; preds = %2
  %4 = load i32, ptr %1, align 4, !tbaa !3
  store i32 %4, ptr %0, align 4, !tbaa !3
  %5 = getelementptr inbounds nuw i8, ptr %1, i64 4
  %6 = load i32, ptr %5, align 4, !tbaa !8
  %7 = getelementptr inbounds nuw i8, ptr %0, i64 4
  store i32 %6, ptr %7, align 4, !tbaa !8
  %8 = getelementptr inbounds nuw i8, ptr %1, i64 8
  %9 = load i32, ptr %8, align 4, !tbaa !9
  %10 = getelementptr inbounds nuw i8, ptr %0, i64 8
  store i32 %9, ptr %10, align 4, !tbaa !9
  %11 = getelementptr inbounds nuw i8, ptr %1, i64 12
  %12 = load i32, ptr %11, align 4, !tbaa !10
  %13 = getelementptr inbounds nuw i8, ptr %0, i64 12
  store i32 %12, ptr %13, align 4, !tbaa !10
  %14 = getelementptr inbounds nuw i8, ptr %1, i64 16
  %15 = load i32, ptr %14, align 4, !tbaa !11
  %16 = getelementptr inbounds nuw i8, ptr %0, i64 16
  store i32 %15, ptr %16, align 4, !tbaa !11
  %17 = getelementptr inbounds nuw i8, ptr %1, i64 20
  %18 = load i32, ptr %17, align 4, !tbaa !12
  %19 = getelementptr inbounds nuw i8, ptr %0, i64 20
  store i32 %18, ptr %19, align 4, !tbaa !12
  %20 = getelementptr inbounds nuw i8, ptr %1, i64 24
  %21 = load i32, ptr %20, align 4, !tbaa !13
  %22 = getelementptr inbounds nuw i8, ptr %0, i64 24
  store i32 %21, ptr %22, align 4, !tbaa !13
  br label %23

23:                                               ; preds = %3, %2
  ret ptr %0
}